target datalayout = "e-m:e-p270:32:32-p271:32:32-p272:64:64-i64:64-i128:128-f80:128-n8:16:32:64-S128"
target triple = "x86_64-pc-linux-gnu"

%struct.ossl_cmp_revrepcontent_st = type { ptr, ptr, ptr }

@.str = private unnamed_addr constant [32 x i8] c"../openssl/crypto/cmp/cmp_msg.c\00", align 1
@__func__.ossl_cmp_revrepcontent_get_CertId = private unnamed_addr constant [34 x i8] c"ossl_cmp_revrepcontent_get_CertId\00", align 1

; Function Attrs: inlinehint nounwind uwtable
define internal ptr @ossl_check_const_OSSL_CRMF_CERTID_sk_type(ptr noundef %0) #4 {
  %2 = alloca ptr, align 8
  store ptr %0, ptr %2, align 8, !tbaa !134
  %3 = load ptr, ptr %2, align 8, !tbaa !134
  ret ptr %3
}

; Function Attrs: nounwind uwtable
define ptr @ossl_cmp_revrepcontent_get_CertId(ptr noundef %0, i32 noundef %1) #0 {
  %3 = alloca ptr, align 8
  %4 = alloca ptr, align 8
  %5 = alloca i32, align 4
  %6 = alloca ptr, align 8
  %7 = alloca i32, align 4
  store ptr %0, ptr %4, align 8, !tbaa !125
  store i32 %1, ptr %5, align 4, !tbaa !20
  call void @llvm.lifetime.start.p0(i64 8, ptr %6) #6
  store ptr null, ptr %6, align 8, !tbaa !71
  %8 = load ptr, ptr %4, align 8, !tbaa !125
  %9 = icmp ne ptr %8, null
  %10 = zext i1 %9 to i32
  %11 = icmp ne i32 %10, 0
  %12 = xor i1 %11, true
  %13 = xor i1 %12, true
  %14 = zext i1 %13 to i32
  %15 = sext i32 %14 to i64
  %16 = call i64 @llvm.expect.i64(i64 %15, i64 1)
  %17 = icmp ne i64 %16, 0
  br i1 %17, label %19, label %18

18:                                               ; preds = %2
  store ptr null, ptr %3, align 8
  store i32 1, ptr %7, align 4
  br label %30

19:                                               ; preds = %2
  %20 = load ptr, ptr %4, align 8, !tbaa !125
  %21 = getelementptr inbounds nuw %struct.ossl_cmp_revrepcontent_st, ptr %20, i32 0, i32 1
  %22 = load ptr, ptr %21, align 8, !tbaa !132
  %23 = call ptr @ossl_check_const_OSSL_CRMF_CERTID_sk_type(ptr noundef %22)
  %24 = load i32, ptr %5, align 4, !tbaa !20
  %25 = call ptr @OPENSSL_sk_value(ptr noundef %23, i32 noundef %24)
  store ptr %25, ptr %6, align 8, !tbaa !71
  %26 = icmp ne ptr %25, null
  br i1 %26, label %27, label %29

27:                                               ; preds = %19
  %28 = load ptr, ptr %6, align 8, !tbaa !71
  store ptr %28, ptr %3, align 8
  store i32 1, ptr %7, align 4
  br label %30

29:                                               ; preds = %19
  call void @ERR_new()
  call void @ERR_set_debug(ptr noundef @.str, i32 noundef 1032, ptr noundef @__func__.ossl_cmp_revrepcontent_get_CertId)
  call void (i32, i32, ptr, ...) @ERR_set_error(i32 noundef 58, i32 noundef 109, ptr noundef null)
  store ptr null, ptr %3, align 8
  store i32 1, ptr %7, align 4
  br label %30

30:                                               ; preds = %29, %27, %18
  call void @llvm.lifetime.end.p0(i64 8, ptr %6) #6
  %31 = load ptr, ptr %3, align 8
  ret ptr %31
}