; Function Attrs: nounwind uwtable
define ptr @ossl_cmp_revrepcontent_get_CertId(ptr noundef readonly captures(address_is_null) %0, i32 noundef %1) local_unnamed_addr #0 {
  %.not = icmp eq ptr %0, null
  br i1 %.not, label %8, label %3, !prof !18

3:                                                ; preds = %2
  %4 = getelementptr inbounds nuw i8, ptr %0, i64 8
  %5 = load ptr, ptr %4, align 8, !tbaa !88
  %6 = tail call ptr @OPENSSL_sk_value(ptr noundef %5, i32 noundef %1) #7
  %.not6 = icmp eq ptr %6, null
  br i1 %.not6, label %7, label %8

7:                                                ; preds = %3
  tail call void @ERR_new() #7
  tail call void @ERR_set_debug(ptr noundef nonnull @.str, i32 noundef 1032, ptr noundef nonnull @__func__.ossl_cmp_revrepcontent_get_CertId) #7
  tail call void (i32, i32, ptr, ...) @ERR_set_error(i32 noundef 58, i32 noundef 109, ptr noundef null) #7
  br label %8

8:                                                ; preds = %3, %2, %7
  %.0 = phi ptr [ null, %7 ], [ null, %2 ], [ %6, %3 ]
  ret ptr %.0
}